; Function Attrs: nounwind uwtable
define void @Java_sun_security_pkcs11_wrapper_PKCS11_C_1Finalize(ptr noundef %0, ptr noundef %1, ptr noundef %2) local_unnamed_addr #1 {
  %4 = tail call ptr @getFunctionList(ptr noundef %0, ptr noundef %1) #7
  %5 = icmp eq ptr %4, null
  br i1 %5, label %11, label %6

6:                                                ; preds = %3
  %7 = getelementptr inbounds i8, ptr %4, i64 16
  %8 = load ptr, ptr %7, align 8
  %9 = tail call i64 %8(ptr noundef %2) #7
  %10 = tail call i64 @ckAssertReturnValueOK(ptr noundef %0, i64 noundef %9) #7
  br label %11

11:                                               ; preds = %6, %3
  ret void
}